target datalayout = "e-m:e-p270:32:32-p271:32:32-p272:64:64-i64:64-i128:128-f80:128-n8:16:32:64-S128"
target triple = "x86_64-pc-linux-gnu"

%"class.icu_77::RegexMatcher" = type { %"class.icu_77::UObject", ptr, ptr, ptr, ptr, ptr, i64, i32, i64, i64, i64, i64, i64, i64, i64, i64, i8, i8, i8, i64, i64, i64, i64, i8, i8, ptr, ptr, ptr, [8 x i64], i32, i32, i32, i32, ptr, ptr, ptr, ptr, i8, i8, i32, ptr, ptr }
%"class.icu_77::UObject" = type { ptr }

; Function Attrs: mustprogress nounwind uwtable
define void @_ZN6icu_7712RegexMatcher19resetPreserveRegionEv(ptr noundef nonnull align 8 dereferenceable(336) %0) #0 align 2 {
  %2 = alloca ptr, align 8
  store ptr %0, ptr %2, align 8, !tbaa !23
  %3 = load ptr, ptr %2, align 8
  %4 = getelementptr inbounds nuw %"class.icu_77::RegexMatcher", ptr %3, i32 0, i32 19
  store i64 0, ptr %4, align 8, !tbaa !67
  %5 = getelementptr inbounds nuw %"class.icu_77::RegexMatcher", ptr %3, i32 0, i32 20
  store i64 0, ptr %5, align 8, !tbaa !68
  %6 = getelementptr inbounds nuw %"class.icu_77::RegexMatcher", ptr %3, i32 0, i32 21
  store i64 -1, ptr %6, align 8, !tbaa !69
  %7 = getelementptr inbounds nuw %"class.icu_77::RegexMatcher", ptr %3, i32 0, i32 22
  store i64 0, ptr %7, align 8, !tbaa !70
  %8 = getelementptr inbounds nuw %"class.icu_77::RegexMatcher", ptr %3, i32 0, i32 18
  store i8 0, ptr %8, align 2, !tbaa !66
  %9 = getelementptr inbounds nuw %"class.icu_77::RegexMatcher", ptr %3, i32 0, i32 23
  store i8 0, ptr %9, align 8, !tbaa !71
  %10 = getelementptr inbounds nuw %"class.icu_77::RegexMatcher", ptr %3, i32 0, i32 24
  store i8 0, ptr %10, align 1, !tbaa !72
  %11 = getelementptr inbounds nuw %"class.icu_77::RegexMatcher", ptr %3, i32 0, i32 30
  store i32 0, ptr %11, align 4, !tbaa !76
  %12 = getelementptr inbounds nuw %"class.icu_77::RegexMatcher", ptr %3, i32 0, i32 31
  store i32 10000, ptr %12, align 8, !tbaa !77
  ret void
}

; Function Attrs: mustprogress uwtable
define noundef nonnull align 8 dereferenceable(336) ptr @_ZN6icu_7712RegexMatcher5resetEv(ptr noundef nonnull align 8 dereferenceable(336) %0) unnamed_addr #1 align 2 {
  %2 = alloca ptr, align 8
  store ptr %0, ptr %2, align 8, !tbaa !23
  %3 = load ptr, ptr %2, align 8
  %4 = getelementptr inbounds nuw %"class.icu_77::RegexMatcher", ptr %3, i32 0, i32 8
  store i64 0, ptr %4, align 8, !tbaa !56
  %5 = getelementptr inbounds nuw %"class.icu_77::RegexMatcher", ptr %3, i32 0, i32 6
  %6 = load i64, ptr %5, align 8, !tbaa !90
  %7 = getelementptr inbounds nuw %"class.icu_77::RegexMatcher", ptr %3, i32 0, i32 9
  store i64 %6, ptr %7, align 8, !tbaa !57
  %8 = getelementptr inbounds nuw %"class.icu_77::RegexMatcher", ptr %3, i32 0, i32 14
  store i64 0, ptr %8, align 8, !tbaa !62
  %9 = getelementptr inbounds nuw %"class.icu_77::RegexMatcher", ptr %3, i32 0, i32 6
  %10 = load i64, ptr %9, align 8, !tbaa !90
  %11 = getelementptr inbounds nuw %"class.icu_77::RegexMatcher", ptr %3, i32 0, i32 15
  store i64 %10, ptr %11, align 8, !tbaa !63
  %12 = getelementptr inbounds nuw %"class.icu_77::RegexMatcher", ptr %3, i32 0, i32 10
  store i64 0, ptr %12, align 8, !tbaa !58
  %13 = getelementptr inbounds nuw %"class.icu_77::RegexMatcher", ptr %3, i32 0, i32 6
  %14 = load i64, ptr %13, align 8, !tbaa !90
  %15 = getelementptr inbounds nuw %"class.icu_77::RegexMatcher", ptr %3, i32 0, i32 11
  store i64 %14, ptr %15, align 8, !tbaa !59
  %16 = getelementptr inbounds nuw %"class.icu_77::RegexMatcher", ptr %3, i32 0, i32 12
  store i64 0, ptr %16, align 8, !tbaa !60
  %17 = getelementptr inbounds nuw %"class.icu_77::RegexMatcher", ptr %3, i32 0, i32 6
  %18 = load i64, ptr %17, align 8, !tbaa !90
  %19 = getelementptr inbounds nuw %"class.icu_77::RegexMatcher", ptr %3, i32 0, i32 13
  store i64 %18, ptr %19, align 8, !tbaa !61
  call void @_ZN6icu_7712RegexMatcher19resetPreserveRegionEv(ptr noundef nonnull align 8 dereferenceable(336) %3)
  ret ptr %3
}

; Function Attrs: inlinehint mustprogress nounwind uwtable
define internal noundef signext i8 @_ZL9U_FAILURE10UErrorCode(i32 noundef %0) #2 {
  %2 = alloca i32, align 4
  store i32 %0, ptr %2, align 4, !tbaa !15
  %3 = load i32, ptr %2, align 4, !tbaa !15
  %4 = icmp sgt i32 %3, 0
  %5 = zext i1 %4 to i8
  ret i8 %5
}

; Function Attrs: mustprogress uwtable
define noundef nonnull align 8 dereferenceable(336) ptr @_ZN6icu_7712RegexMatcher6regionElllR10UErrorCode(ptr noundef nonnull align 8 dereferenceable(336) %0, i64 noundef %1, i64 noundef %2, i64 noundef %3, ptr noundef nonnull align 4 dereferenceable(4) %4) unnamed_addr #1 align 2 {
  %6 = alloca ptr, align 8
  %7 = alloca ptr, align 8
  %8 = alloca i64, align 8
  %9 = alloca i64, align 8
  %10 = alloca i64, align 8
  %11 = alloca ptr, align 8
  %12 = alloca i64, align 8
  %13 = alloca i64, align 8
  store ptr %0, ptr %7, align 8, !tbaa !23
  store i64 %1, ptr %8, align 8, !tbaa !18
  store i64 %2, ptr %9, align 8, !tbaa !18
  store i64 %3, ptr %10, align 8, !tbaa !18
  store ptr %4, ptr %11, align 8, !tbaa !22
  %14 = load ptr, ptr %7, align 8
  %15 = load ptr, ptr %11, align 8, !tbaa !22
  %16 = load i32, ptr %15, align 4, !tbaa !15
  %17 = call noundef signext i8 @_ZL9U_FAILURE10UErrorCode(i32 noundef %16)
  %18 = icmp ne i8 %17, 0
  br i1 %18, label %19, label %20

19:                                               ; preds = %5
  store ptr %14, ptr %6, align 8
  br label %97

20:                                               ; preds = %5
  %21 = load i64, ptr %8, align 8, !tbaa !18
  %22 = load i64, ptr %9, align 8, !tbaa !18
  %23 = icmp sgt i64 %21, %22
  br i1 %23, label %30, label %24

24:                                               ; preds = %20
  %25 = load i64, ptr %8, align 8, !tbaa !18
  %26 = icmp slt i64 %25, 0
  br i1 %26, label %30, label %27

27:                                               ; preds = %24
  %28 = load i64, ptr %9, align 8, !tbaa !18
  %29 = icmp slt i64 %28, 0
  br i1 %29, label %30, label %32

30:                                               ; preds = %27, %24, %20
  %31 = load ptr, ptr %11, align 8, !tbaa !22
  store i32 1, ptr %31, align 4, !tbaa !15
  br label %32

32:                                               ; preds = %30, %27
  call void @llvm.lifetime.start.p0(i64 8, ptr %12) #11
  %33 = load i64, ptr %8, align 8, !tbaa !18
  store i64 %33, ptr %12, align 8, !tbaa !18
  call void @llvm.lifetime.start.p0(i64 8, ptr %13) #11
  %34 = load i64, ptr %9, align 8, !tbaa !18
  store i64 %34, ptr %13, align 8, !tbaa !18
  %35 = load i64, ptr %12, align 8, !tbaa !18
  %36 = getelementptr inbounds nuw %"class.icu_77::RegexMatcher", ptr %14, i32 0, i32 6
  %37 = load i64, ptr %36, align 8, !tbaa !90
  %38 = icmp sgt i64 %35, %37
  br i1 %38, label %44, label %39

39:                                               ; preds = %32
  %40 = load i64, ptr %13, align 8, !tbaa !18
  %41 = getelementptr inbounds nuw %"class.icu_77::RegexMatcher", ptr %14, i32 0, i32 6
  %42 = load i64, ptr %41, align 8, !tbaa !90
  %43 = icmp sgt i64 %40, %42
  br i1 %43, label %44, label %46

44:                                               ; preds = %39, %32
  %45 = load ptr, ptr %11, align 8, !tbaa !22
  store i32 1, ptr %45, align 4, !tbaa !15
  br label %46

46:                                               ; preds = %44, %39
  %47 = load i64, ptr %10, align 8, !tbaa !18
  %48 = icmp eq i64 %47, -1
  br i1 %48, label %49, label %51

49:                                               ; preds = %46
  %50 = call noundef nonnull align 8 dereferenceable(336) ptr @_ZN6icu_7712RegexMatcher5resetEv(ptr noundef nonnull align 8 dereferenceable(336) %14)
  br label %52

51:                                               ; preds = %46
  call void @_ZN6icu_7712RegexMatcher19resetPreserveRegionEv(ptr noundef nonnull align 8 dereferenceable(336) %14)
  br label %52

52:                                               ; preds = %51, %49
  %53 = load i64, ptr %12, align 8, !tbaa !18
  %54 = getelementptr inbounds nuw %"class.icu_77::RegexMatcher", ptr %14, i32 0, i32 8
  store i64 %53, ptr %54, align 8, !tbaa !56
  %55 = load i64, ptr %13, align 8, !tbaa !18
  %56 = getelementptr inbounds nuw %"class.icu_77::RegexMatcher", ptr %14, i32 0, i32 9
  store i64 %55, ptr %56, align 8, !tbaa !57
  %57 = load i64, ptr %12, align 8, !tbaa !18
  %58 = getelementptr inbounds nuw %"class.icu_77::RegexMatcher", ptr %14, i32 0, i32 14
  store i64 %57, ptr %58, align 8, !tbaa !62
  %59 = load i64, ptr %13, align 8, !tbaa !18
  %60 = getelementptr inbounds nuw %"class.icu_77::RegexMatcher", ptr %14, i32 0, i32 15
  store i64 %59, ptr %60, align 8, !tbaa !63
  %61 = load i64, ptr %10, align 8, !tbaa !18
  %62 = icmp ne i64 %61, -1
  br i1 %62, label %63, label %78

63:                                               ; preds = %52
  %64 = load i64, ptr %10, align 8, !tbaa !18
  %65 = getelementptr inbounds nuw %"class.icu_77::RegexMatcher", ptr %14, i32 0, i32 14
  %66 = load i64, ptr %65, align 8, !tbaa !62
  %67 = icmp slt i64 %64, %66
  br i1 %67, label %73, label %68

68:                                               ; preds = %63
  %69 = load i64, ptr %10, align 8, !tbaa !18
  %70 = getelementptr inbounds nuw %"class.icu_77::RegexMatcher", ptr %14, i32 0, i32 15
  %71 = load i64, ptr %70, align 8, !tbaa !63
  %72 = icmp sgt i64 %69, %71
  br i1 %72, label %73, label %75

73:                                               ; preds = %68, %63
  %74 = load ptr, ptr %11, align 8, !tbaa !22
  store i32 8, ptr %74, align 4, !tbaa !15
  br label %75

75:                                               ; preds = %73, %68
  %76 = load i64, ptr %10, align 8, !tbaa !18
  %77 = getelementptr inbounds nuw %"class.icu_77::RegexMatcher", ptr %14, i32 0, i32 20
  store i64 %76, ptr %77, align 8, !tbaa !68
  br label %78

78:                                               ; preds = %75, %52
  %79 = getelementptr inbounds nuw %"class.icu_77::RegexMatcher", ptr %14, i32 0, i32 16
  %80 = load i8, ptr %79, align 8, !tbaa !64
  %81 = icmp ne i8 %80, 0
  br i1 %81, label %87, label %82

82:                                               ; preds = %78
  %83 = load i64, ptr %12, align 8, !tbaa !18
  %84 = getelementptr inbounds nuw %"class.icu_77::RegexMatcher", ptr %14, i32 0, i32 12
  store i64 %83, ptr %84, align 8, !tbaa !60
  %85 = load i64, ptr %13, align 8, !tbaa !18
  %86 = getelementptr inbounds nuw %"class.icu_77::RegexMatcher", ptr %14, i32 0, i32 13
  store i64 %85, ptr %86, align 8, !tbaa !61
  br label %87

87:                                               ; preds = %82, %78
  %88 = getelementptr inbounds nuw %"class.icu_77::RegexMatcher", ptr %14, i32 0, i32 17
  %89 = load i8, ptr %88, align 1, !tbaa !65
  %90 = icmp ne i8 %89, 0
  br i1 %90, label %91, label %96

91:                                               ; preds = %87
  %92 = load i64, ptr %12, align 8, !tbaa !18
  %93 = getelementptr inbounds nuw %"class.icu_77::RegexMatcher", ptr %14, i32 0, i32 10
  store i64 %92, ptr %93, align 8, !tbaa !58
  %94 = load i64, ptr %13, align 8, !tbaa !18
  %95 = getelementptr inbounds nuw %"class.icu_77::RegexMatcher", ptr %14, i32 0, i32 11
  store i64 %94, ptr %95, align 8, !tbaa !59
  br label %96

96:                                               ; preds = %91, %87
  store ptr %14, ptr %6, align 8
  call void @llvm.lifetime.end.p0(i64 8, ptr %13) #11
  call void @llvm.lifetime.end.p0(i64 8, ptr %12) #11
  br label %97

97:                                               ; preds = %96, %19
  %98 = load ptr, ptr %6, align 8
  ret ptr %98
}