; Function Attrs: mustprogress nofree norecurse nosync nounwind willreturn memory(argmem: readwrite) uwtable
define noundef nonnull align 8 dereferenceable(336) ptr @_ZN6icu_7712RegexMatcher6regionElllR10UErrorCode(ptr noundef nonnull returned align 8 dereferenceable(336) %0, i64 noundef %1, i64 noundef %2, i64 noundef %3, ptr noundef nonnull align 4 captures(none) dereferenceable(4) %4) unnamed_addr #10 align 2 {
  %6 = load i32, ptr %4, align 4, !tbaa !13
  %7 = icmp slt i32 %6, 1
  br i1 %7, label %8, label %67

8:                                                ; preds = %5
  %9 = icmp sgt i64 %1, %2
  %10 = or i64 %2, %1
  %11 = icmp slt i64 %10, 0
  %or.cond3 = or i1 %9, %11
  br i1 %or.cond3, label %12, label %13

12:                                               ; preds = %8
  store i32 1, ptr %4, align 4, !tbaa !13
  br label %13

13:                                               ; preds = %8, %12
  %14 = getelementptr inbounds nuw i8, ptr %0, i64 48
  %15 = load i64, ptr %14, align 8, !tbaa !66
  %16 = icmp sgt i64 %1, %15
  %17 = icmp sgt i64 %2, %15
  %or.cond = or i1 %16, %17
  br i1 %or.cond, label %18, label %19

18:                                               ; preds = %13
  store i32 1, ptr %4, align 4, !tbaa !13
  br label %19

19:                                               ; preds = %13, %18
  %20 = icmp eq i64 %3, -1
  br i1 %20, label %.thread, label %37

.thread:                                          ; preds = %19
  %21 = getelementptr inbounds nuw i8, ptr %0, i64 64
  %22 = getelementptr inbounds nuw i8, ptr %0, i64 72
  %23 = getelementptr inbounds nuw i8, ptr %0, i64 112
  %24 = getelementptr inbounds nuw i8, ptr %0, i64 120
  %25 = getelementptr inbounds nuw i8, ptr %0, i64 80
  store i64 0, ptr %25, align 8, !tbaa !70
  %26 = getelementptr inbounds nuw i8, ptr %0, i64 88
  store i64 %15, ptr %26, align 8, !tbaa !71
  %27 = getelementptr inbounds nuw i8, ptr %0, i64 96
  store i64 0, ptr %27, align 8, !tbaa !72
  %28 = getelementptr inbounds nuw i8, ptr %0, i64 104
  store i64 %15, ptr %28, align 8, !tbaa !73
  %29 = getelementptr inbounds nuw i8, ptr %0, i64 136
  %30 = getelementptr inbounds nuw i8, ptr %0, i64 152
  tail call void @llvm.memset.p0.i64(ptr noundef nonnull align 8 dereferenceable(16) %29, i8 0, i64 16, i1 false)
  store i64 -1, ptr %30, align 8, !tbaa !30
  %31 = getelementptr inbounds nuw i8, ptr %0, i64 160
  store i64 0, ptr %31, align 8, !tbaa !31
  %32 = getelementptr inbounds nuw i8, ptr %0, i64 130
  store i8 0, ptr %32, align 2, !tbaa !29
  %33 = getelementptr inbounds nuw i8, ptr %0, i64 168
  store i8 0, ptr %33, align 8, !tbaa !32
  %34 = getelementptr inbounds nuw i8, ptr %0, i64 169
  store i8 0, ptr %34, align 1, !tbaa !33
  %35 = getelementptr inbounds nuw i8, ptr %0, i64 268
  store i32 0, ptr %35, align 4, !tbaa !35
  %36 = getelementptr inbounds nuw i8, ptr %0, i64 272
  store i32 10000, ptr %36, align 8, !tbaa !36
  store i64 %1, ptr %21, align 8, !tbaa !65
  store i64 %2, ptr %22, align 8, !tbaa !67
  store i64 %1, ptr %23, align 8, !tbaa !68
  store i64 %2, ptr %24, align 8, !tbaa !69
  br label %55

37:                                               ; preds = %19
  %38 = getelementptr inbounds nuw i8, ptr %0, i64 136
  %39 = getelementptr inbounds nuw i8, ptr %0, i64 152
  store i64 0, ptr %38, align 8
  store i64 -1, ptr %39, align 8, !tbaa !30
  %40 = getelementptr inbounds nuw i8, ptr %0, i64 160
  store i64 0, ptr %40, align 8, !tbaa !31
  %41 = getelementptr inbounds nuw i8, ptr %0, i64 130
  store i8 0, ptr %41, align 2, !tbaa !29
  %42 = getelementptr inbounds nuw i8, ptr %0, i64 168
  store i8 0, ptr %42, align 8, !tbaa !32
  %43 = getelementptr inbounds nuw i8, ptr %0, i64 169
  store i8 0, ptr %43, align 1, !tbaa !33
  %44 = getelementptr inbounds nuw i8, ptr %0, i64 268
  store i32 0, ptr %44, align 4, !tbaa !35
  %45 = getelementptr inbounds nuw i8, ptr %0, i64 272
  store i32 10000, ptr %45, align 8, !tbaa !36
  %46 = getelementptr inbounds nuw i8, ptr %0, i64 64
  store i64 %1, ptr %46, align 8, !tbaa !65
  %47 = getelementptr inbounds nuw i8, ptr %0, i64 72
  store i64 %2, ptr %47, align 8, !tbaa !67
  %48 = getelementptr inbounds nuw i8, ptr %0, i64 112
  store i64 %1, ptr %48, align 8, !tbaa !68
  %49 = getelementptr inbounds nuw i8, ptr %0, i64 120
  store i64 %2, ptr %49, align 8, !tbaa !69
  %50 = icmp slt i64 %3, %1
  %51 = icmp sgt i64 %3, %2
  %or.cond33 = or i1 %50, %51
  br i1 %or.cond33, label %52, label %53

52:                                               ; preds = %37
  store i32 8, ptr %4, align 4, !tbaa !13
  br label %53

53:                                               ; preds = %37, %52
  %54 = getelementptr inbounds nuw i8, ptr %0, i64 144
  store i64 %3, ptr %54, align 8, !tbaa !92
  br label %55

55:                                               ; preds = %.thread, %53
  %56 = getelementptr inbounds nuw i8, ptr %0, i64 128
  %57 = load i8, ptr %56, align 8, !tbaa !153
  %.not31 = icmp eq i8 %57, 0
  br i1 %.not31, label %58, label %61

58:                                               ; preds = %55
  %59 = getelementptr inbounds nuw i8, ptr %0, i64 96
  store i64 %1, ptr %59, align 8, !tbaa !72
  %60 = getelementptr inbounds nuw i8, ptr %0, i64 104
  store i64 %2, ptr %60, align 8, !tbaa !73
  br label %61

61:                                               ; preds = %58, %55
  %62 = getelementptr inbounds nuw i8, ptr %0, i64 129
  %63 = load i8, ptr %62, align 1, !tbaa !28
  %.not32 = icmp eq i8 %63, 0
  br i1 %.not32, label %67, label %64

64:                                               ; preds = %61
  %65 = getelementptr inbounds nuw i8, ptr %0, i64 80
  store i64 %1, ptr %65, align 8, !tbaa !70
  %66 = getelementptr inbounds nuw i8, ptr %0, i64 88
  store i64 %2, ptr %66, align 8, !tbaa !71
  br label %67

67:                                               ; preds = %61, %64, %5
  ret ptr %0
}